target datalayout = "e-m:e-p270:32:32-p271:32:32-p272:64:64-i64:64-i128:128-f80:128-n8:16:32:64-S128"
target triple = "x86_64-pc-linux-gnu"

; Function Attrs: nounwind uwtable
define dso_local void @walker_targets_free(i32 noundef %0, ptr noundef %1, ptr noundef %2) #0 {
  %4 = alloca i32, align 4
  %5 = alloca ptr, align 8
  %6 = alloca ptr, align 8
  store i32 %0, ptr %4, align 4, !tbaa !18
  store ptr %1, ptr %5, align 8, !tbaa !19
  store ptr %2, ptr %6, align 8, !tbaa !19
  br label %7

7:                                                ; preds = %25, %3
  %8 = load i32, ptr %4, align 4, !tbaa !18
  %9 = add nsw i32 %8, -1
  store i32 %9, ptr %4, align 4, !tbaa !18
  %10 = icmp ne i32 %8, 0
  br i1 %10, label %11, label %26

11:                                               ; preds = %7
  %12 = load ptr, ptr %5, align 8, !tbaa !19
  %13 = load i32, ptr %4, align 4, !tbaa !18
  %14 = sext i32 %13 to i64
  %15 = getelementptr inbounds ptr, ptr %12, i64 %14
  %16 = load ptr, ptr %15, align 8, !tbaa !9
  call void @free(ptr noundef %16) #9
  %17 = load ptr, ptr %6, align 8, !tbaa !19
  %18 = icmp ne ptr %17, null
  br i1 %18, label %19, label %25

19:                                               ; preds = %11
  %20 = load ptr, ptr %6, align 8, !tbaa !19
  %21 = load i32, ptr %4, align 4, !tbaa !18
  %22 = sext i32 %21 to i64
  %23 = getelementptr inbounds ptr, ptr %20, i64 %22
  %24 = load ptr, ptr %23, align 8, !tbaa !9
  call void @free(ptr noundef %24) #9
  br label %25

25:                                               ; preds = %19, %11
  br label %7, !llvm.loop !26

26:                                               ; preds = %7
  ret void
}