; Function Attrs: nounwind uwtable
define dso_local void @walker_targets_free(i32 noundef %0, ptr noundef readonly captures(none) %1, ptr noundef readonly %2) local_unnamed_addr #4 {
  %.not7 = icmp eq i32 %0, 0
  br i1 %.not7, label %._crit_edge, label %.lr.ph

.lr.ph:                                           ; preds = %3
  %4 = add i32 %0, -1
  %.not6 = icmp eq ptr %2, null
  %5 = sext i32 %4 to i64
  br i1 %.not6, label %.lr.ph.split.us, label %.lr.ph.split

.lr.ph.split.us:                                  ; preds = %.lr.ph, %.lr.ph.split.us
  %indvars.iv10 = phi i64 [ %indvars.iv.next11, %.lr.ph.split.us ], [ %5, %.lr.ph ]
  %6 = getelementptr inbounds ptr, ptr %1, i64 %indvars.iv10
  %7 = load ptr, ptr %6, align 8, !tbaa !19
  tail call void @free(ptr noundef %7) #13
  %indvars.iv.next11 = add nsw i64 %indvars.iv10, -1
  %8 = icmp eq i64 %indvars.iv10, 0
  br i1 %8, label %._crit_edge, label %.lr.ph.split.us, !llvm.loop !20

.lr.ph.split:                                     ; preds = %.lr.ph, %.lr.ph.split
  %indvars.iv = phi i64 [ %indvars.iv.next, %.lr.ph.split ], [ %5, %.lr.ph ]
  %9 = getelementptr inbounds ptr, ptr %1, i64 %indvars.iv
  %10 = load ptr, ptr %9, align 8, !tbaa !19
  tail call void @free(ptr noundef %10) #13
  %11 = getelementptr inbounds ptr, ptr %2, i64 %indvars.iv
  %12 = load ptr, ptr %11, align 8, !tbaa !19
  tail call void @free(ptr noundef %12) #13
  %indvars.iv.next = add nsw i64 %indvars.iv, -1
  %13 = icmp eq i64 %indvars.iv, 0
  br i1 %13, label %._crit_edge, label %.lr.ph.split, !llvm.loop !20

._crit_edge:                                      ; preds = %.lr.ph.split, %.lr.ph.split.us, %3
  ret void
}